target datalayout = "e-m:e-p270:32:32-p271:32:32-p272:64:64-i64:64-i128:128-f80:128-n8:16:32:64-S128"
target triple = "x86_64-unknown-linux-gnu"

%struct.SCSISense = type { i8, i8, i8 }
%struct.SCSIReqOps = type { i64, ptr, ptr, ptr, ptr, ptr, ptr, ptr, ptr }
%struct.SCSIDiskState = type { %struct.SCSIDevice, i32, i8, i8, i8, i16, i64, i64, i32, ptr, ptr, ptr, ptr, ptr, ptr, i8, i8, i16 }
%struct.SCSIDevice = type { %struct.DeviceState, ptr, ptr, i32, %struct.BlockConf, %struct.SCSISense, i8, [252 x i8], i32, %union.anon, i32, i32, i32, i32, i64, i64, i64, i32, i32, i32, i8, i8 }
%struct.DeviceState = type { %struct.Object, ptr, ptr, i8, i8, i64, ptr, i32, i8, ptr, %struct.NamedGPIOListHead, %struct.NamedClockListHead, %struct.BusStateHead, i32, i32, i32, %struct.ResettableState, ptr, %struct.MemReentrancyGuard }
%struct.Object = type { ptr, ptr, ptr, i32, ptr }
%struct.NamedGPIOListHead = type { ptr }
%struct.NamedClockListHead = type { ptr }
%struct.BusStateHead = type { ptr }
%struct.ResettableState = type { i32, i8, i8 }
%struct.MemReentrancyGuard = type { i8 }
%struct.BlockConf = type { ptr, i32, i32, i32, i32, i32, i32, i32, i32, i32, i32, i32, i32, i32, i32, i8, i32, i32, i32, i32 }
%union.anon = type { %struct.QTailQLink }
%struct.QTailQLink = type { ptr, ptr }

@scsi_generic_req_ops = external constant %struct.SCSIReqOps, align 8
@scsi_block_dma_reqops = internal constant %struct.SCSIReqOps { i64 640, ptr null, ptr @scsi_free_request, ptr @scsi_block_dma_command, ptr @scsi_read_data, ptr @scsi_write_data, ptr @scsi_get_buf, ptr @scsi_disk_save_request, ptr @scsi_disk_load_request }, align 8

; Function Attrs: nounwind sspstrong uwtable
define internal zeroext i1 @scsi_block_is_passthrough(ptr noundef %s, ptr noundef %buf) #0 {
entry:
  %retval = alloca i1, align 1
  %s.addr = alloca ptr, align 8
  %buf.addr = alloca ptr, align 8
  store ptr %s, ptr %s.addr, align 8
  store ptr %buf, ptr %buf.addr, align 8
  %0 = load ptr, ptr %buf.addr, align 8
  %arrayidx = getelementptr i8, ptr %0, i64 0
  %1 = load i8, ptr %arrayidx, align 1
  %conv = zext i8 %1 to i32
  switch i32 %conv, label %sw.default [
    i32 47, label %sw.bb
    i32 175, label %sw.bb
    i32 143, label %sw.bb
    i32 8, label %sw.bb4
    i32 40, label %sw.bb4
    i32 168, label %sw.bb4
    i32 136, label %sw.bb4
    i32 10, label %sw.bb4
    i32 42, label %sw.bb4
    i32 170, label %sw.bb4
    i32 138, label %sw.bb4
    i32 46, label %sw.bb4
    i32 174, label %sw.bb4
    i32 142, label %sw.bb4
  ]

sw.bb:                                            ; preds = %entry, %entry, %entry
  %2 = load ptr, ptr %buf.addr, align 8
  %arrayidx1 = getelementptr i8, ptr %2, i64 1
  %3 = load i8, ptr %arrayidx1, align 1
  %conv2 = zext i8 %3 to i32
  %and = and i32 %conv2, 6
  %cmp = icmp eq i32 %and, 2
  br i1 %cmp, label %if.then, label %if.end

if.then:                                          ; preds = %sw.bb
  store i1 false, ptr %retval, align 1
  br label %return

if.end:                                           ; preds = %sw.bb
  br label %sw.epilog

sw.bb4:                                           ; preds = %entry, %entry, %entry, %entry, %entry, %entry, %entry, %entry, %entry, %entry, %entry
  %4 = load ptr, ptr %s.addr, align 8
  %qdev = getelementptr inbounds %struct.SCSIDiskState, ptr %4, i32 0, i32 0
  %type = getelementptr inbounds %struct.SCSIDevice, ptr %qdev, i32 0, i32 13
  %5 = load i32, ptr %type, align 4
  %cmp5 = icmp ne i32 %5, 5
  br i1 %cmp5, label %if.then7, label %if.end8

if.then7:                                         ; preds = %sw.bb4
  store i1 false, ptr %retval, align 1
  br label %return

if.end8:                                          ; preds = %sw.bb4
  br label %sw.epilog

sw.default:                                       ; preds = %entry
  br label %sw.epilog

sw.epilog:                                        ; preds = %sw.default, %if.end8, %if.end
  store i1 true, ptr %retval, align 1
  br label %return

return:                                           ; preds = %sw.epilog, %if.then7, %if.then
  %6 = load i1, ptr %retval, align 1
  ret i1 %6
}

; Function Attrs: nounwind sspstrong uwtable
define internal ptr @scsi_block_new_request(ptr noundef %d, i32 noundef %tag, i32 noundef %lun, ptr noundef %buf, ptr noundef %hba_private) #0 {
entry:
  %retval = alloca ptr, align 8
  %d.addr = alloca ptr, align 8
  %tag.addr = alloca i32, align 4
  %lun.addr = alloca i32, align 4
  %buf.addr = alloca ptr, align 8
  %hba_private.addr = alloca ptr, align 8
  %s = alloca ptr, align 8
  %tmp = alloca ptr, align 8
  %__mptr = alloca ptr, align 8
  %tmp1 = alloca ptr, align 8
  store ptr %d, ptr %d.addr, align 8
  store i32 %tag, ptr %tag.addr, align 4
  store i32 %lun, ptr %lun.addr, align 4
  store ptr %buf, ptr %buf.addr, align 8
  store ptr %hba_private, ptr %hba_private.addr, align 8
  %0 = load ptr, ptr %d.addr, align 8
  store ptr %0, ptr %__mptr, align 8
  %1 = load ptr, ptr %__mptr, align 8
  %add.ptr = getelementptr i8, ptr %1, i64 0
  store ptr %add.ptr, ptr %tmp1, align 8
  %2 = load ptr, ptr %tmp1, align 8
  store ptr %2, ptr %tmp, align 8
  %3 = load ptr, ptr %tmp, align 8
  store ptr %3, ptr %s, align 8
  %4 = load ptr, ptr %s, align 8
  %5 = load ptr, ptr %buf.addr, align 8
  %call = call zeroext i1 @scsi_block_is_passthrough(ptr noundef %4, ptr noundef %5)
  br i1 %call, label %if.then, label %if.else

if.then:                                          ; preds = %entry
  %6 = load ptr, ptr %s, align 8
  %qdev = getelementptr inbounds %struct.SCSIDiskState, ptr %6, i32 0, i32 0
  %7 = load i32, ptr %tag.addr, align 4
  %8 = load i32, ptr %lun.addr, align 4
  %9 = load ptr, ptr %hba_private.addr, align 8
  %call2 = call ptr @scsi_req_alloc(ptr noundef @scsi_generic_req_ops, ptr noundef %qdev, i32 noundef %7, i32 noundef %8, ptr noundef %9)
  store ptr %call2, ptr %retval, align 8
  br label %return

if.else:                                          ; preds = %entry
  %10 = load ptr, ptr %s, align 8
  %qdev3 = getelementptr inbounds %struct.SCSIDiskState, ptr %10, i32 0, i32 0
  %11 = load i32, ptr %tag.addr, align 4
  %12 = load i32, ptr %lun.addr, align 4
  %13 = load ptr, ptr %hba_private.addr, align 8
  %call4 = call ptr @scsi_req_alloc(ptr noundef @scsi_block_dma_reqops, ptr noundef %qdev3, i32 noundef %11, i32 noundef %12, ptr noundef %13)
  store ptr %call4, ptr %retval, align 8
  br label %return

return:                                           ; preds = %if.else, %if.then
  %14 = load ptr, ptr %retval, align 8
  ret ptr %14
}