; Function Attrs: nounwind sspstrong uwtable
define internal ptr @scsi_block_new_request(ptr noundef %d, i32 noundef %tag, i32 noundef %lun, ptr noundef readonly captures(none) %buf, ptr noundef %hba_private) #0 {
entry:
  %0 = load i8, ptr %buf, align 1
  switch i8 %0, label %return [
    i8 47, label %sw.bb.i
    i8 -81, label %sw.bb.i
    i8 -113, label %sw.bb.i
    i8 8, label %sw.bb4.i
    i8 40, label %sw.bb4.i
    i8 -88, label %sw.bb4.i
    i8 -120, label %sw.bb4.i
    i8 10, label %sw.bb4.i
    i8 42, label %sw.bb4.i
    i8 -86, label %sw.bb4.i
    i8 -118, label %sw.bb4.i
    i8 46, label %sw.bb4.i
    i8 -82, label %sw.bb4.i
    i8 -114, label %sw.bb4.i
  ]

sw.bb.i:                                          ; preds = %entry, %entry, %entry
  %arrayidx1.i = getelementptr i8, ptr %buf, i64 1
  %1 = load i8, ptr %arrayidx1.i, align 1
  %2 = and i8 %1, 6
  %cmp.i = icmp eq i8 %2, 2
  br i1 %cmp.i, label %if.else, label %return

sw.bb4.i:                                         ; preds = %entry, %entry, %entry, %entry, %entry, %entry, %entry, %entry, %entry, %entry, %entry
  %type.i = getelementptr inbounds nuw i8, ptr %d, i64 564
  %3 = load i32, ptr %type.i, align 4
  %cmp5.not.i = icmp eq i32 %3, 5
  br i1 %cmp5.not.i, label %return, label %if.else

if.else:                                          ; preds = %sw.bb.i, %sw.bb4.i
  br label %return

return:                                           ; preds = %entry, %sw.bb.i, %sw.bb4.i, %if.else
  %scsi_block_dma_reqops.sink = phi ptr [ @scsi_block_dma_reqops, %if.else ], [ @scsi_generic_req_ops, %sw.bb4.i ], [ @scsi_generic_req_ops, %sw.bb.i ], [ @scsi_generic_req_ops, %entry ]
  %call4 = tail call ptr @scsi_req_alloc(ptr noundef nonnull %scsi_block_dma_reqops.sink, ptr noundef %d, i32 noundef %tag, i32 noundef %lun, ptr noundef %hba_private) #18
  ret ptr %call4
}